target datalayout = "e-m:e-p270:32:32-p271:32:32-p272:64:64-i64:64-i128:128-f80:128-n8:16:32:64-S128"
target triple = "x86_64-pc-linux-gnu"

@ett_gsm_rlcmac_container = internal global i32 0, align 4
@hf_ps_handoverto_eutran_payload_rrc_container = internal global i32 0, align 4
@lte_rrc_dl_dcch_handle = internal global ptr null, align 8
@.str.3514 = private unnamed_addr constant [24 x i8] c"E-UTRAN DL-DCCH Message\00", align 1

; Function Attrs: null_pointer_is_valid sspstrong uwtable
define internal signext i16 @callback_call_eutran_dl_dcch(ptr noundef %0, ptr noundef %1, ptr noundef %2, ptr noundef %3, i32 noundef %4, i32 noundef %5, ptr noundef %6) #0 {
  %8 = alloca ptr, align 8
  %9 = alloca ptr, align 8
  %10 = alloca ptr, align 8
  %11 = alloca ptr, align 8
  %12 = alloca i32, align 4
  %13 = alloca i32, align 4
  %14 = alloca ptr, align 8
  %15 = alloca i8, align 1
  %16 = alloca ptr, align 8
  %17 = alloca ptr, align 8
  %18 = alloca ptr, align 8
  store ptr %0, ptr %8, align 8
  store ptr %1, ptr %9, align 8
  store ptr %2, ptr %10, align 8
  store ptr %3, ptr %11, align 8
  store i32 %4, ptr %12, align 4
  store i32 %5, ptr %13, align 4
  store ptr %6, ptr %14, align 8
  call void @llvm.lifetime.start.p0(i64 1, ptr %15) #5
  %19 = load ptr, ptr %10, align 8
  %20 = load i8, ptr %19, align 1
  store i8 %20, ptr %15, align 1
  call void @llvm.lifetime.start.p0(i64 8, ptr %16) #5
  call void @llvm.lifetime.start.p0(i64 8, ptr %17) #5
  %21 = load ptr, ptr %9, align 8
  %22 = load i32, ptr %12, align 4
  %23 = load i8, ptr %15, align 1
  %24 = zext i8 %23 to i32
  %25 = shl i32 %24, 3
  %26 = call ptr @tvb_new_octet_aligned(ptr noundef %21, i32 noundef %22, i32 noundef %25)
  store ptr %26, ptr %17, align 8
  %27 = load ptr, ptr %14, align 8
  %28 = load ptr, ptr %17, align 8
  call void @add_new_data_source(ptr noundef %27, ptr noundef %28, ptr noundef @.str.3514)
  %29 = load ptr, ptr %8, align 8
  %30 = load i32, ptr @hf_ps_handoverto_eutran_payload_rrc_container, align 4
  %31 = load ptr, ptr %17, align 8
  %32 = call ptr @proto_tree_add_item(ptr noundef %29, i32 noundef %30, ptr noundef %31, i32 noundef 0, i32 noundef -1, i32 noundef 0)
  store ptr %32, ptr %16, align 8
  %33 = load ptr, ptr @lte_rrc_dl_dcch_handle, align 8
  %34 = icmp ne ptr %33, null
  br i1 %34, label %35, label %44

35:                                               ; preds = %7
  call void @llvm.lifetime.start.p0(i64 8, ptr %18) #5
  %36 = load ptr, ptr %16, align 8
  %37 = load i32, ptr @ett_gsm_rlcmac_container, align 4
  %38 = call ptr @proto_item_add_subtree(ptr noundef %36, i32 noundef %37)
  store ptr %38, ptr %18, align 8
  %39 = load ptr, ptr @lte_rrc_dl_dcch_handle, align 8
  %40 = load ptr, ptr %17, align 8
  %41 = load ptr, ptr %14, align 8
  %42 = load ptr, ptr %18, align 8
  %43 = call i32 @call_dissector(ptr noundef %39, ptr noundef %40, ptr noundef %41, ptr noundef %42)
  call void @llvm.lifetime.end.p0(i64 8, ptr %18) #5
  br label %44

44:                                               ; preds = %35, %7
  %45 = load i8, ptr %15, align 1
  %46 = zext i8 %45 to i32
  %47 = shl i32 %46, 3
  %48 = trunc i32 %47 to i16
  call void @llvm.lifetime.end.p0(i64 8, ptr %17) #5
  call void @llvm.lifetime.end.p0(i64 8, ptr %16) #5
  call void @llvm.lifetime.end.p0(i64 1, ptr %15) #5
  ret i16 %48
}