; Function Attrs: null_pointer_is_valid sspstrong uwtable
define internal signext range(i16 0, 2041) i16 @callback_call_eutran_dl_dcch(ptr noundef %0, ptr noundef %1, ptr noundef readonly captures(none) %2, ptr readnone captures(none) %3, i32 noundef %4, i32 %5, ptr noundef %6) #0 {
  %8 = load i8, ptr %2, align 1
  %9 = zext i8 %8 to i32
  %10 = shl nuw nsw i32 %9, 3
  %11 = tail call ptr @tvb_new_octet_aligned(ptr noundef %1, i32 noundef %4, i32 noundef %10)
  tail call void @add_new_data_source(ptr noundef %6, ptr noundef %11, ptr noundef nonnull @.str.3514)
  %12 = load i32, ptr @hf_ps_handoverto_eutran_payload_rrc_container, align 4
  %13 = tail call ptr @proto_tree_add_item(ptr noundef %0, i32 noundef %12, ptr noundef %11, i32 noundef 0, i32 noundef -1, i32 noundef 0)
  %14 = load ptr, ptr @lte_rrc_dl_dcch_handle, align 8
  %.not = icmp eq ptr %14, null
  br i1 %.not, label %20, label %15

15:                                               ; preds = %7
  %16 = load i32, ptr @ett_gsm_rlcmac_container, align 4
  %17 = tail call ptr @proto_item_add_subtree(ptr noundef %13, i32 noundef %16)
  %18 = load ptr, ptr @lte_rrc_dl_dcch_handle, align 8
  %19 = tail call i32 @call_dissector(ptr noundef %18, ptr noundef %11, ptr noundef %6, ptr noundef %17)
  br label %20

20:                                               ; preds = %15, %7
  %21 = trunc nuw nsw i32 %10 to i16
  ret i16 %21
}